; Function Attrs: mustprogress nounwind uwtable
define dso_local void @_ZN14BinaryResourceD0Ev(ptr noundef nonnull align 8 dereferenceable(80) initializes((0, 8)) %0) unnamed_addr #3 align 2 personality ptr @__gxx_personality_v0 {
  store ptr getelementptr inbounds nuw inrange(-16, 64) (i8, ptr @_ZTV14BinaryResource, i64 16), ptr %0, align 8, !tbaa !9
  %2 = getelementptr inbounds nuw i8, ptr %0, i64 64
  %3 = load ptr, ptr %2, align 8, !tbaa !62
  %4 = icmp eq ptr %3, null
  br i1 %4, label %6, label %5

5:                                                ; preds = %1
  tail call void @_ZdaPv(ptr noundef nonnull %3) #35
  br label %6

6:                                                ; preds = %5, %1
  %7 = getelementptr inbounds nuw i8, ptr %0, i64 72
  %8 = load ptr, ptr %7, align 8, !tbaa !61
  %9 = icmp eq ptr %8, null
  br i1 %9, label %11, label %10

10:                                               ; preds = %6
  tail call void @_ZdaPv(ptr noundef nonnull %8) #35
  br label %11

11:                                               ; preds = %10, %6
  store ptr getelementptr inbounds nuw inrange(-16, 64) (i8, ptr @_ZTV9SResource, i64 16), ptr %0, align 8, !tbaa !9
  %12 = getelementptr inbounds nuw i8, ptr %0, i64 40
  invoke void @ustr_deinit(ptr noundef nonnull %12)
          to label %_ZN14BinaryResourceD2Ev.exit unwind label %13

13:                                               ; preds = %11
  %14 = landingpad { ptr, i32 }
          catch ptr null
  %15 = extractvalue { ptr, i32 } %14, 0
  tail call void @__clang_call_terminate(ptr %15) #31
  unreachable

_ZN14BinaryResourceD2Ev.exit:                     ; preds = %11
  tail call void @_ZdlPvm(ptr noundef nonnull %0, i64 noundef 80) #35
  ret void
}